; Function Attrs: nofree nosync nounwind memory(readwrite, inaccessiblemem: none) uwtable
define float @If_CutAreaDeref(ptr noundef readonly captures(none) %0, ptr noundef readonly captures(none) %1) local_unnamed_addr #8 {
  %3 = getelementptr i8, ptr %1, i64 28
  %.val16 = load i64, ptr %3, align 4
  %4 = and i64 %.val16, 32768
  %.not.i = icmp eq i64 %4, 0
  br i1 %.not.i, label %11, label %5

5:                                                ; preds = %2
  %6 = getelementptr inbounds nuw i8, ptr %0, i64 8
  %7 = load ptr, ptr %6, align 8, !tbaa !57
  %8 = getelementptr inbounds nuw i8, ptr %7, i64 44
  %9 = load i32, ptr %8, align 4, !tbaa !101
  %10 = sitofp i32 %9 to float
  br label %If_CutLutArea.exit

11:                                               ; preds = %2
  %12 = and i64 %.val16, 8192
  %.not7.i = icmp eq i64 %12, 0
  br i1 %.not7.i, label %17, label %13

13:                                               ; preds = %11
  %14 = trunc i64 %.val16 to i32
  %15 = and i32 %14, 4095
  %16 = uitofp nneg i32 %15 to float
  br label %If_CutLutArea.exit

17:                                               ; preds = %11
  %18 = getelementptr inbounds nuw i8, ptr %0, i64 8
  %19 = load ptr, ptr %18, align 8, !tbaa !57
  %20 = getelementptr inbounds nuw i8, ptr %19, i64 288
  %21 = load ptr, ptr %20, align 8, !tbaa !102
  %.not8.i = icmp eq ptr %21, null
  br i1 %.not8.i, label %If_CutLutArea.exit, label %22

22:                                               ; preds = %17
  %23 = getelementptr inbounds nuw i8, ptr %21, i64 16
  %24 = lshr i64 %.val16, 24
  %25 = and i64 %24, 255
  %26 = getelementptr inbounds nuw [33 x float], ptr %23, i64 0, i64 %25
  %27 = load float, ptr %26, align 4, !tbaa !103
  br label %If_CutLutArea.exit

If_CutLutArea.exit:                               ; preds = %5, %13, %17, %22
  %28 = phi float [ %10, %5 ], [ %16, %13 ], [ %27, %22 ], [ 1.000000e+00, %17 ]
  %29 = getelementptr inbounds nuw i8, ptr %1, i64 36
  %30 = and i64 %.val16, 4278190080
  %.not23 = icmp eq i64 %30, 0
  br i1 %.not23, label %.critedge, label %.lr.ph

.lr.ph:                                           ; preds = %If_CutLutArea.exit
  %31 = getelementptr i8, ptr %0, i64 40
  br label %32

32:                                               ; preds = %.lr.ph, %50
  %indvars.iv = phi i64 [ 0, %.lr.ph ], [ %indvars.iv.next, %50 ]
  %.01319 = phi float [ %28, %.lr.ph ], [ %.1, %50 ]
  %33 = getelementptr inbounds nuw [0 x i32], ptr %29, i64 0, i64 %indvars.iv
  %34 = load i32, ptr %33, align 4, !tbaa !14
  %.val = load ptr, ptr %31, align 8, !tbaa !92
  %35 = getelementptr i8, ptr %.val, i64 8
  %.val.val = load ptr, ptr %35, align 8, !tbaa !93
  %36 = sext i32 %34 to i64
  %37 = getelementptr inbounds ptr, ptr %.val.val, i64 %36
  %38 = load ptr, ptr %37, align 8, !tbaa !95
  %.not = icmp eq ptr %38, null
  br i1 %.not, label %.critedge, label %39

39:                                               ; preds = %32
  %40 = getelementptr inbounds nuw i8, ptr %38, i64 12
  %41 = load i32, ptr %40, align 4, !tbaa !104
  %42 = add nsw i32 %41, -1
  store i32 %42, ptr %40, align 4, !tbaa !104
  %43 = icmp sgt i32 %41, 1
  br i1 %43, label %50, label %44

44:                                               ; preds = %39
  %.val17 = load i32, ptr %38, align 8
  %45 = and i32 %.val17, 15
  %.not18 = icmp eq i32 %45, 4
  br i1 %.not18, label %46, label %50

46:                                               ; preds = %44
  %47 = getelementptr inbounds nuw i8, ptr %38, i64 80
  %48 = tail call float @If_CutAreaDeref(ptr noundef nonnull %0, ptr noundef nonnull %47)
  %49 = fadd float %.01319, %48
  br label %50

50:                                               ; preds = %39, %44, %46
  %.1 = phi float [ %.01319, %39 ], [ %49, %46 ], [ %.01319, %44 ]
  %indvars.iv.next = add nuw nsw i64 %indvars.iv, 1
  %51 = load i64, ptr %3, align 4
  %52 = lshr i64 %51, 24
  %53 = and i64 %52, 255
  %54 = icmp samesign ult i64 %indvars.iv.next, %53
  br i1 %54, label %32, label %.critedge, !llvm.loop !114

.critedge:                                        ; preds = %32, %50, %If_CutLutArea.exit
  %.013.lcssa = phi float [ %28, %If_CutLutArea.exit ], [ %.1, %50 ], [ %.01319, %32 ]
  ret float %.013.lcssa
}